; Function Attrs: mustprogress uwtable
define hidden void @_ZN4lean13print_importsERKNSt7__cxx1112basic_stringIcSt11char_traitsIcESaIcEEES7_(ptr noundef nonnull align 8 dereferenceable(32) %0, ptr noundef nonnull align 8 dereferenceable(32) %1) local_unnamed_addr #2 {
  %3 = tail call noundef ptr @_ZN4lean9mk_stringERKNSt7__cxx1112basic_stringIcSt11char_traitsIcESaIcEEE(ptr noundef nonnull align 8 dereferenceable(32) %0)
  %4 = tail call noundef ptr @_ZN4lean9mk_stringERKNSt7__cxx1112basic_stringIcSt11char_traitsIcESaIcEEE(ptr noundef nonnull align 8 dereferenceable(32) %1)
  tail call void @lean_inc_heartbeat()
  %5 = tail call noalias ptr @mi_malloc_small(i64 noundef 16) #28
  %6 = icmp eq ptr %5, null
  br i1 %6, label %7, label %_ZN4lean14mk_option_someEP11lean_object.exit

7:                                                ; preds = %2
  tail call void @lean_internal_panic_out_of_memory() #29
  unreachable

_ZN4lean14mk_option_someEP11lean_object.exit:     ; preds = %2
  %8 = getelementptr inbounds nuw i8, ptr %5, i64 4
  store i32 1, ptr %5, align 4, !tbaa !8
  store i32 16842768, ptr %8, align 4
  %9 = getelementptr inbounds nuw i8, ptr %5, i64 8
  store ptr %4, ptr %9, align 8, !tbaa !55
  %10 = tail call ptr @lean_print_imports(ptr noundef %3, ptr noundef nonnull %5, ptr noundef nonnull inttoptr (i64 1 to ptr))
  tail call void @_ZN4lean17consume_io_resultEP11lean_object(ptr noundef %10)
  ret void
}